target datalayout = "e-m:e-p270:32:32-p271:32:32-p272:64:64-i64:64-i128:128-f80:128-n8:16:32:64-S128"
target triple = "x86_64-pc-linux-gnu"

%struct.URLContext = type { ptr, ptr, ptr, ptr, i32, i32, i32, i32, %struct.AVIOInterruptCB, i64, ptr, ptr, i32 }
%struct.AVIOInterruptCB = type { ptr, ptr }
%struct.UDPContext = type { ptr, i32, i32, i32, i32, i32, i32, i32, i32, i32, i32, %struct.sockaddr_storage, i32, i32, i32, ptr, i32, i64, i64, i32, i64, %union.pthread_mutex_t, %union.pthread_cond_t, i32, [65540 x i8], i32, ptr, i32, %struct.sockaddr_storage, ptr, ptr, %struct.IPSourceFilters }
%union.pthread_mutex_t = type { %struct.__pthread_mutex_s }
%struct.__pthread_mutex_s = type { i32, i32, i32, i32, i32, i16, i16, %struct.__pthread_internal_list }
%struct.__pthread_internal_list = type { ptr, ptr }
%union.pthread_cond_t = type { %struct.__pthread_cond_s }
%struct.__pthread_cond_s = type { %union.__atomic_wide_counter, %union.__atomic_wide_counter, [2 x i32], [2 x i32], i32, i32, [2 x i32] }
%union.__atomic_wide_counter = type { i64 }
%struct.sockaddr_storage = type { i16, [118 x i8], i64 }
%struct.IPSourceFilters = type { i32, i32, ptr, ptr }
%struct.addrinfo = type { i32, i32, i32, i32, i32, ptr, ptr, ptr }

@.str = private unnamed_addr constant [8 x i8] c"connect\00", align 1

; Function Attrs: nounwind uwtable
define internal i32 @udp_set_url(ptr noundef %0, ptr noundef %1, ptr noundef %2, i32 noundef %3) #0 {
  %5 = alloca i32, align 4
  %6 = alloca ptr, align 8
  %7 = alloca ptr, align 8
  %8 = alloca ptr, align 8
  %9 = alloca i32, align 4
  %10 = alloca ptr, align 8
  %11 = alloca i32, align 4
  %12 = alloca i32, align 4
  store ptr %0, ptr %6, align 8, !tbaa !4
  store ptr %1, ptr %7, align 8, !tbaa !31
  store ptr %2, ptr %8, align 8, !tbaa !9
  store i32 %3, ptr %9, align 4, !tbaa !20
  call void @llvm.lifetime.start.p0(i64 8, ptr %10) #9
  call void @llvm.lifetime.start.p0(i64 4, ptr %11) #9
  %13 = load ptr, ptr %6, align 8, !tbaa !4
  %14 = load ptr, ptr %8, align 8, !tbaa !9
  %15 = load i32, ptr %9, align 4, !tbaa !20
  %16 = call ptr @ff_ip_resolve_host(ptr noundef %13, ptr noundef %14, i32 noundef %15, i32 noundef 2, i32 noundef 0, i32 noundef 0)
  store ptr %16, ptr %10, align 8, !tbaa !32
  %17 = load ptr, ptr %10, align 8, !tbaa !32
  %18 = icmp ne ptr %17, null
  br i1 %18, label %20, label %19

19:                                               ; preds = %4
  store i32 -5, ptr %5, align 4
  store i32 1, ptr %12, align 4
  br label %34

20:                                               ; preds = %4
  %21 = load ptr, ptr %7, align 8, !tbaa !31
  %22 = load ptr, ptr %10, align 8, !tbaa !32
  %23 = getelementptr inbounds nuw %struct.addrinfo, ptr %22, i32 0, i32 5
  %24 = load ptr, ptr %23, align 8, !tbaa !34
  %25 = load ptr, ptr %10, align 8, !tbaa !32
  %26 = getelementptr inbounds nuw %struct.addrinfo, ptr %25, i32 0, i32 4
  %27 = load i32, ptr %26, align 8, !tbaa !37
  %28 = zext i32 %27 to i64
  call void @llvm.memcpy.p0.p0.i64(ptr align 8 %21, ptr align 2 %24, i64 %28, i1 false)
  %29 = load ptr, ptr %10, align 8, !tbaa !32
  %30 = getelementptr inbounds nuw %struct.addrinfo, ptr %29, i32 0, i32 4
  %31 = load i32, ptr %30, align 8, !tbaa !37
  store i32 %31, ptr %11, align 4, !tbaa !20
  %32 = load ptr, ptr %10, align 8, !tbaa !32
  call void @freeaddrinfo(ptr noundef %32) #9
  %33 = load i32, ptr %11, align 4, !tbaa !20
  store i32 %33, ptr %5, align 4
  store i32 1, ptr %12, align 4
  br label %34

34:                                               ; preds = %20, %19
  call void @llvm.lifetime.end.p0(i64 4, ptr %11) #9
  call void @llvm.lifetime.end.p0(i64 8, ptr %10) #9
  %35 = load i32, ptr %5, align 4
  ret i32 %35
}

; Function Attrs: nounwind uwtable
define i32 @ff_udp_set_remote_url(ptr noundef %0, ptr noundef %1) #0 {
  %3 = alloca i32, align 4
  %4 = alloca ptr, align 8
  %5 = alloca ptr, align 8
  %6 = alloca ptr, align 8
  %7 = alloca [256 x i8], align 16
  %8 = alloca [10 x i8], align 1
  %9 = alloca i32, align 4
  %10 = alloca ptr, align 8
  %11 = alloca i32, align 4
  %12 = alloca i32, align 4
  store ptr %0, ptr %4, align 8, !tbaa !4
  store ptr %1, ptr %5, align 8, !tbaa !9
  call void @llvm.lifetime.start.p0(i64 8, ptr %6) #9
  %13 = load ptr, ptr %4, align 8, !tbaa !4
  %14 = getelementptr inbounds nuw %struct.URLContext, ptr %13, i32 0, i32 2
  %15 = load ptr, ptr %14, align 8, !tbaa !11
  store ptr %15, ptr %6, align 8, !tbaa !18
  call void @llvm.lifetime.start.p0(i64 256, ptr %7) #9
  call void @llvm.lifetime.start.p0(i64 10, ptr %8) #9
  call void @llvm.lifetime.start.p0(i64 4, ptr %9) #9
  call void @llvm.lifetime.start.p0(i64 8, ptr %10) #9
  %16 = getelementptr inbounds [256 x i8], ptr %7, i64 0, i64 0
  %17 = load ptr, ptr %5, align 8, !tbaa !9
  call void @av_url_split(ptr noundef null, i32 noundef 0, ptr noundef null, i32 noundef 0, ptr noundef %16, i32 noundef 256, ptr noundef %9, ptr noundef null, i32 noundef 0, ptr noundef %17)
  %18 = load ptr, ptr %4, align 8, !tbaa !4
  %19 = load ptr, ptr %6, align 8, !tbaa !18
  %20 = getelementptr inbounds nuw %struct.UDPContext, ptr %19, i32 0, i32 11
  %21 = getelementptr inbounds [256 x i8], ptr %7, i64 0, i64 0
  %22 = load i32, ptr %9, align 4, !tbaa !20
  %23 = call i32 @udp_set_url(ptr noundef %18, ptr noundef %20, ptr noundef %21, i32 noundef %22)
  %24 = load ptr, ptr %6, align 8, !tbaa !18
  %25 = getelementptr inbounds nuw %struct.UDPContext, ptr %24, i32 0, i32 12
  store i32 %23, ptr %25, align 8, !tbaa !21
  %26 = load ptr, ptr %6, align 8, !tbaa !18
  %27 = getelementptr inbounds nuw %struct.UDPContext, ptr %26, i32 0, i32 12
  %28 = load i32, ptr %27, align 8, !tbaa !21
  %29 = icmp slt i32 %28, 0
  br i1 %29, label %30, label %31

30:                                               ; preds = %2
  store i32 -5, ptr %3, align 4
  store i32 1, ptr %11, align 4
  br label %84

31:                                               ; preds = %2
  %32 = load ptr, ptr %6, align 8, !tbaa !18
  %33 = getelementptr inbounds nuw %struct.UDPContext, ptr %32, i32 0, i32 11
  %34 = call i32 @ff_is_multicast_address(ptr noundef %33)
  %35 = load ptr, ptr %6, align 8, !tbaa !18
  %36 = getelementptr inbounds nuw %struct.UDPContext, ptr %35, i32 0, i32 6
  store i32 %34, ptr %36, align 4, !tbaa !28
  %37 = load ptr, ptr %5, align 8, !tbaa !9
  %38 = call ptr @strchr(ptr noundef %37, i32 noundef 63) #10
  store ptr %38, ptr %10, align 8, !tbaa !9
  %39 = load ptr, ptr %10, align 8, !tbaa !9
  %40 = icmp ne ptr %39, null
  br i1 %40, label %41, label %83

41:                                               ; preds = %31
  %42 = getelementptr inbounds [10 x i8], ptr %8, i64 0, i64 0
  %43 = load ptr, ptr %10, align 8, !tbaa !9
  %44 = call i32 @av_find_info_tag(ptr noundef %42, i32 noundef 10, ptr noundef @.str, ptr noundef %43)
  %45 = icmp ne i32 %44, 0
  br i1 %45, label %46, label %82

46:                                               ; preds = %41
  call void @llvm.lifetime.start.p0(i64 4, ptr %12) #9
  %47 = load ptr, ptr %6, align 8, !tbaa !18
  %48 = getelementptr inbounds nuw %struct.UDPContext, ptr %47, i32 0, i32 13
  %49 = load i32, ptr %48, align 4, !tbaa !29
  store i32 %49, ptr %12, align 4, !tbaa !20
  %50 = getelementptr inbounds [10 x i8], ptr %8, i64 0, i64 0
  %51 = call i64 @strtol(ptr noundef %50, ptr noundef null, i32 noundef 10) #9
  %52 = trunc i64 %51 to i32
  %53 = load ptr, ptr %6, align 8, !tbaa !18
  %54 = getelementptr inbounds nuw %struct.UDPContext, ptr %53, i32 0, i32 13
  store i32 %52, ptr %54, align 4, !tbaa !29
  %55 = load ptr, ptr %6, align 8, !tbaa !18
  %56 = getelementptr inbounds nuw %struct.UDPContext, ptr %55, i32 0, i32 13
  %57 = load i32, ptr %56, align 4, !tbaa !29
  %58 = icmp ne i32 %57, 0
  br i1 %58, label %59, label %78

59:                                               ; preds = %46
  %60 = load i32, ptr %12, align 4, !tbaa !20
  %61 = icmp ne i32 %60, 0
  br i1 %61, label %78, label %62

62:                                               ; preds = %59
  %63 = load ptr, ptr %6, align 8, !tbaa !18
  %64 = getelementptr inbounds nuw %struct.UDPContext, ptr %63, i32 0, i32 1
  %65 = load i32, ptr %64, align 8, !tbaa !30
  %66 = load ptr, ptr %6, align 8, !tbaa !18
  %67 = getelementptr inbounds nuw %struct.UDPContext, ptr %66, i32 0, i32 11
  %68 = load ptr, ptr %6, align 8, !tbaa !18
  %69 = getelementptr inbounds nuw %struct.UDPContext, ptr %68, i32 0, i32 12
  %70 = load i32, ptr %69, align 8, !tbaa !21
  %71 = call i32 @connect(i32 noundef %65, ptr noundef %67, i32 noundef %70)
  %72 = icmp ne i32 %71, 0
  br i1 %72, label %73, label %77

73:                                               ; preds = %62
  %74 = load ptr, ptr %6, align 8, !tbaa !18
  %75 = getelementptr inbounds nuw %struct.UDPContext, ptr %74, i32 0, i32 13
  store i32 0, ptr %75, align 4, !tbaa !29
  %76 = load ptr, ptr %4, align 8, !tbaa !4
  call void @ff_log_net_error(ptr noundef %76, i32 noundef 16, ptr noundef @.str)
  store i32 -5, ptr %3, align 4
  store i32 1, ptr %11, align 4
  br label %79

77:                                               ; preds = %62
  br label %78

78:                                               ; preds = %77, %59, %46
  store i32 0, ptr %11, align 4
  br label %79

79:                                               ; preds = %78, %73
  call void @llvm.lifetime.end.p0(i64 4, ptr %12) #9
  %80 = load i32, ptr %11, align 4
  switch i32 %80, label %84 [
    i32 0, label %81
  ]

81:                                               ; preds = %79
  br label %82

82:                                               ; preds = %81, %41
  br label %83

83:                                               ; preds = %82, %31
  store i32 0, ptr %3, align 4
  store i32 1, ptr %11, align 4
  br label %84

84:                                               ; preds = %83, %79, %30
  call void @llvm.lifetime.end.p0(i64 8, ptr %10) #9
  call void @llvm.lifetime.end.p0(i64 4, ptr %9) #9
  call void @llvm.lifetime.end.p0(i64 10, ptr %8) #9
  call void @llvm.lifetime.end.p0(i64 256, ptr %7) #9
  call void @llvm.lifetime.end.p0(i64 8, ptr %6) #9
  %85 = load i32, ptr %3, align 4
  ret i32 %85
}