; Function Attrs: nounwind uwtable
define range(i32 -5, 1) i32 @ff_udp_set_remote_url(ptr noundef %0, ptr noundef %1) local_unnamed_addr #0 {
  %3 = alloca [256 x i8], align 16
  %4 = alloca [10 x i8], align 1
  %5 = alloca i32, align 4
  %6 = getelementptr inbounds nuw i8, ptr %0, i64 16
  %7 = load ptr, ptr %6, align 8, !tbaa !4
  call void @llvm.lifetime.start.p0(i64 256, ptr nonnull %3) #11
  call void @llvm.lifetime.start.p0(i64 10, ptr nonnull %4) #11
  call void @llvm.lifetime.start.p0(i64 4, ptr nonnull %5) #11
  call void @av_url_split(ptr noundef null, i32 noundef 0, ptr noundef null, i32 noundef 0, ptr noundef nonnull %3, i32 noundef 256, ptr noundef nonnull %5, ptr noundef null, i32 noundef 0, ptr noundef %1) #11
  %8 = getelementptr inbounds nuw i8, ptr %7, i64 48
  %9 = load i32, ptr %5, align 4, !tbaa !15
  %10 = call ptr @ff_ip_resolve_host(ptr noundef %0, ptr noundef nonnull %3, i32 noundef %9, i32 noundef 2, i32 noundef 0, i32 noundef 0) #11
  %.not.i = icmp eq ptr %10, null
  br i1 %.not.i, label %udp_set_url.exit.thread, label %udp_set_url.exit

udp_set_url.exit.thread:                          ; preds = %2
  %11 = getelementptr inbounds nuw i8, ptr %7, i64 176
  store i32 -5, ptr %11, align 8, !tbaa !16
  br label %38

udp_set_url.exit:                                 ; preds = %2
  %12 = getelementptr inbounds nuw i8, ptr %10, i64 24
  %13 = load ptr, ptr %12, align 8, !tbaa !23
  %14 = getelementptr inbounds nuw i8, ptr %10, i64 16
  %15 = load i32, ptr %14, align 8, !tbaa !27
  %16 = zext i32 %15 to i64
  call void @llvm.memcpy.p0.p0.i64(ptr nonnull align 8 %8, ptr align 2 %13, i64 %16, i1 false)
  %17 = load i32, ptr %14, align 8, !tbaa !27
  call void @freeaddrinfo(ptr noundef nonnull %10) #11
  %18 = getelementptr inbounds nuw i8, ptr %7, i64 176
  store i32 %17, ptr %18, align 8, !tbaa !16
  %19 = icmp slt i32 %17, 0
  br i1 %19, label %38, label %20

20:                                               ; preds = %udp_set_url.exit
  %21 = call i32 @ff_is_multicast_address(ptr noundef nonnull %8) #11
  %22 = getelementptr inbounds nuw i8, ptr %7, i64 28
  store i32 %21, ptr %22, align 4, !tbaa !28
  %23 = call ptr @strchr(ptr noundef nonnull dereferenceable(1) %1, i32 noundef 63) #12
  %.not = icmp eq ptr %23, null
  br i1 %.not, label %38, label %24

24:                                               ; preds = %20
  %25 = call i32 @av_find_info_tag(ptr noundef nonnull %4, i32 noundef 10, ptr noundef nonnull @.str, ptr noundef nonnull %23) #11
  %.not24 = icmp eq i32 %25, 0
  br i1 %.not24, label %38, label %26

26:                                               ; preds = %24
  %27 = getelementptr inbounds nuw i8, ptr %7, i64 180
  %28 = load i32, ptr %27, align 4, !tbaa !29
  %29 = call i64 @strtol(ptr noundef nonnull captures(none) %4, ptr noundef null, i32 noundef 10) #11
  %30 = trunc i64 %29 to i32
  store i32 %30, ptr %27, align 4, !tbaa !29
  %31 = icmp eq i32 %30, 0
  %32 = icmp ne i32 %28, 0
  %or.cond = select i1 %31, i1 true, i1 %32
  br i1 %or.cond, label %38, label %33

33:                                               ; preds = %26
  %34 = getelementptr inbounds nuw i8, ptr %7, i64 8
  %35 = load i32, ptr %34, align 8, !tbaa !30
  %36 = load i32, ptr %18, align 8, !tbaa !16
  %37 = call i32 @connect(i32 noundef %35, ptr noundef nonnull %8, i32 noundef %36) #11
  %.not25 = icmp eq i32 %37, 0
  br i1 %.not25, label %38, label %.critedge

.critedge:                                        ; preds = %33
  store i32 0, ptr %27, align 4, !tbaa !29
  call void @ff_log_net_error(ptr noundef nonnull %0, i32 noundef 16, ptr noundef nonnull @.str) #11
  br label %38

38:                                               ; preds = %udp_set_url.exit.thread, %20, %24, %26, %33, %.critedge, %udp_set_url.exit
  %.0 = phi i32 [ -5, %udp_set_url.exit ], [ -5, %.critedge ], [ 0, %33 ], [ 0, %26 ], [ 0, %24 ], [ 0, %20 ], [ -5, %udp_set_url.exit.thread ]
  call void @llvm.lifetime.end.p0(i64 4, ptr nonnull %5) #11
  call void @llvm.lifetime.end.p0(i64 10, ptr nonnull %4) #11
  call void @llvm.lifetime.end.p0(i64 256, ptr nonnull %3) #11
  ret i32 %.0
}